; Function Attrs: mustprogress uwtable
define noundef ptr @_ZNK6icu_7513MessageFormat11DummyFormat5cloneEv(ptr nocapture nonnull readnone align 8 %this) unnamed_addr #1 align 2 personality ptr @__gxx_personality_v0 {
entry:
  %call = tail call noundef ptr @_ZN6icu_757UMemorynwEm(i64 noundef 328) #19
  %new.isnull = icmp eq ptr %call, null
  br i1 %new.isnull, label %new.cont, label %new.notnull

new.notnull:                                      ; preds = %entry
  tail call void @llvm.memset.p0.i64(ptr noundef nonnull align 8 dereferenceable(328) %call, i8 0, i64 328, i1 false)
  invoke void @_ZN6icu_756FormatC2Ev(ptr noundef nonnull align 8 dereferenceable(322) %call)
          to label %_ZN6icu_7513MessageFormat11DummyFormatC2Ev.exit unwind label %lpad

_ZN6icu_7513MessageFormat11DummyFormatC2Ev.exit:  ; preds = %new.notnull
  store ptr getelementptr inbounds ({ [11 x ptr] }, ptr @_ZTVN6icu_7513MessageFormat11DummyFormatE, i64 0, i32 0, i64 2), ptr %call, align 8
  br label %new.cont

new.cont:                                         ; preds = %_ZN6icu_7513MessageFormat11DummyFormatC2Ev.exit, %entry
  ret ptr %call

lpad:                                             ; preds = %new.notnull
  %0 = landingpad { ptr, i32 }
          cleanup
  tail call void @_ZN6icu_757UMemorydlEPv(ptr noundef nonnull %call) #19
  resume { ptr, i32 } %0
}